; Function Attrs: mustprogress nofree norecurse nosync nounwind memory(readwrite, inaccessiblemem: none) uwtable
define hidden void @_ZN4llvh3MD56updateENS_9StringRefE(ptr noundef nonnull align 4 dereferenceable(152) %this, ptr %Str.coerce0, i64 %Str.coerce1) local_unnamed_addr #2 align 2 {
entry:
  %lo.i = getelementptr inbounds i8, ptr %this, i64 20
  %0 = load i32, ptr %lo.i, align 4
  %1 = trunc i64 %Str.coerce1 to i32
  %2 = add i32 %0, %1
  %conv3.i = and i32 %2, 536870911
  store i32 %conv3.i, ptr %lo.i, align 4
  %cmp.i = icmp ult i32 %conv3.i, %0
  %hi.i = getelementptr inbounds i8, ptr %this, i64 16
  %3 = load i32, ptr %hi.i, align 4
  %inc.i = zext i1 %cmp.i to i32
  %shr.i = lshr i64 %Str.coerce1, 29
  %4 = trunc i64 %shr.i to i32
  %5 = add i32 %3, %4
  %conv8.i = add i32 %5, %inc.i
  store i32 %conv8.i, ptr %hi.i, align 4
  %and9.i = and i32 %0, 63
  %tobool.not.i = icmp eq i32 %and9.i, 0
  br i1 %tobool.not.i, label %if.end21.i, label %if.then11.i

if.then11.i:                                      ; preds = %entry
  %conv10.i = zext nneg i32 %and9.i to i64
  %sub.i = sub nuw nsw i64 64, %conv10.i
  %cmp12.i = icmp ugt i64 %sub.i, %Str.coerce1
  %buffer.i = getelementptr inbounds i8, ptr %this, i64 24
  %arrayidx.i = getelementptr inbounds [64 x i8], ptr %buffer.i, i64 0, i64 %conv10.i
  br i1 %cmp12.i, label %if.then13.i, label %if.end14.i

if.then13.i:                                      ; preds = %if.then11.i
  tail call void @llvm.memcpy.p0.p0.i64(ptr nonnull align 1 %arrayidx.i, ptr align 1 %Str.coerce0, i64 %Str.coerce1, i1 false)
  br label %_ZN4llvh3MD56updateENS_8ArrayRefIhEE.exit

if.end14.i:                                       ; preds = %if.then11.i
  tail call void @llvm.memcpy.p0.p0.i64(ptr noundef nonnull align 1 dereferenceable(1) %arrayidx.i, ptr noundef nonnull align 1 dereferenceable(1) %Str.coerce0, i64 %sub.i, i1 false)
  %add.ptr.i = getelementptr inbounds i8, ptr %Str.coerce0, i64 %sub.i
  %sub17.i = sub i64 %Str.coerce1, %sub.i
  %call20.i = tail call noundef ptr @_ZN4llvh3MD54bodyENS_8ArrayRefIhEE(ptr noundef nonnull align 4 dereferenceable(152) %this, ptr nonnull %buffer.i, i64 64)
  br label %if.end21.i

if.end21.i:                                       ; preds = %if.end14.i, %entry
  %Size.0.i = phi i64 [ %sub17.i, %if.end14.i ], [ %Str.coerce1, %entry ]
  %Ptr.0.i = phi ptr [ %add.ptr.i, %if.end14.i ], [ %Str.coerce0, %entry ]
  %cmp22.i = icmp ugt i64 %Size.0.i, 63
  br i1 %cmp22.i, label %if.then23.i, label %if.end29.i

if.then23.i:                                      ; preds = %if.end21.i
  %and25.i = and i64 %Size.0.i, -64
  %call27.i = tail call noundef ptr @_ZN4llvh3MD54bodyENS_8ArrayRefIhEE(ptr noundef nonnull align 4 dereferenceable(152) %this, ptr %Ptr.0.i, i64 %and25.i)
  %and28.i = and i64 %Size.0.i, 63
  br label %if.end29.i

if.end29.i:                                       ; preds = %if.then23.i, %if.end21.i
  %Size.1.i = phi i64 [ %and28.i, %if.then23.i ], [ %Size.0.i, %if.end21.i ]
  %Ptr.1.i = phi ptr [ %call27.i, %if.then23.i ], [ %Ptr.0.i, %if.end21.i ]
  %buffer30.i = getelementptr inbounds i8, ptr %this, i64 24
  tail call void @llvm.memcpy.p0.p0.i64(ptr nonnull align 4 %buffer30.i, ptr align 1 %Ptr.1.i, i64 %Size.1.i, i1 false)
  br label %_ZN4llvh3MD56updateENS_8ArrayRefIhEE.exit

_ZN4llvh3MD56updateENS_8ArrayRefIhEE.exit:        ; preds = %if.then13.i, %if.end29.i
  ret void
}